target datalayout = "e-m:e-p270:32:32-p271:32:32-p272:64:64-i64:64-i128:128-f80:128-n8:16:32:64-S128"
target triple = "x86_64-unknown-linux-gnu"

%"class.icu_75::UObject" = type { ptr }
%"class.icu_75::TZGNCore" = type <{ ptr, %"class.icu_75::Locale", ptr, ptr, ptr, %"class.icu_75::SimpleFormatter", %"class.icu_75::SimpleFormatter", ptr, %"class.icu_75::ZNStringPool", %"class.icu_75::TextTrieMap", i8, [4 x i8], [3 x i8] }>
%"class.icu_75::Locale" = type <{ %"class.icu_75::UObject", [12 x i8], [6 x i8], [4 x i8], [2 x i8], i32, [4 x i8], ptr, [157 x i8], [3 x i8], ptr, i8, [7 x i8] }>
%"class.icu_75::SimpleFormatter" = type { [8 x i8], %"class.icu_75::UnicodeString" }
%"class.icu_75::UnicodeString" = type { %"class.icu_75::Replaceable", %"union.icu_75::UnicodeString::StackBufferOrFields" }
%"class.icu_75::Replaceable" = type { %"class.icu_75::UObject" }
%"union.icu_75::UnicodeString::StackBufferOrFields" = type { %struct.anon.0, [32 x i8] }
%struct.anon.0 = type { i16, i32, i32, ptr }
%"class.icu_75::ZNStringPool" = type { ptr, ptr }
%"class.icu_75::TextTrieMap" = type { ptr, i8, ptr, i32, i32, ptr, i8, ptr }

; Function Attrs: mustprogress uwtable
define noundef ptr @_ZNK6icu_758TZGNCore17findTimeZoneNamesERKNS_13UnicodeStringEijR10UErrorCode(ptr noundef nonnull align 8 dereferenceable(485) %this, ptr noundef nonnull align 8 dereferenceable(64) %text, i32 noundef %start, i32 noundef %types, ptr noundef nonnull align 4 dereferenceable(4) %status) #1 align 2 {
entry:
  %retval = alloca ptr, align 8
  %this.addr = alloca ptr, align 8
  %text.addr = alloca ptr, align 8
  %start.addr = alloca i32, align 4
  %types.addr = alloca i32, align 4
  %status.addr = alloca ptr, align 8
  %nameTypes = alloca i32, align 4
  store ptr %this, ptr %this.addr, align 8
  store ptr %text, ptr %text.addr, align 8
  store i32 %start, ptr %start.addr, align 4
  store i32 %types, ptr %types.addr, align 4
  store ptr %status, ptr %status.addr, align 8
  %this1 = load ptr, ptr %this.addr, align 8
  store i32 0, ptr %nameTypes, align 4
  %0 = load i32, ptr %types.addr, align 4
  %and = and i32 %0, 2
  %tobool = icmp ne i32 %and, 0
  br i1 %tobool, label %if.then, label %if.end

if.then:                                          ; preds = %entry
  %1 = load i32, ptr %nameTypes, align 4
  %or = or i32 %1, 3
  store i32 %or, ptr %nameTypes, align 4
  br label %if.end

if.end:                                           ; preds = %if.then, %entry
  %2 = load i32, ptr %types.addr, align 4
  %and2 = and i32 %2, 4
  %tobool3 = icmp ne i32 %and2, 0
  br i1 %tobool3, label %if.then4, label %if.end6

if.then4:                                         ; preds = %if.end
  %3 = load i32, ptr %nameTypes, align 4
  %or5 = or i32 %3, 24
  store i32 %or5, ptr %nameTypes, align 4
  br label %if.end6

if.end6:                                          ; preds = %if.then4, %if.end
  %4 = load i32, ptr %types.addr, align 4
  %tobool7 = icmp ne i32 %4, 0
  br i1 %tobool7, label %if.then8, label %if.end9

if.then8:                                         ; preds = %if.end6
  %fTimeZoneNames = getelementptr inbounds %"class.icu_75::TZGNCore", ptr %this1, i32 0, i32 2
  %5 = load ptr, ptr %fTimeZoneNames, align 8
  %6 = load ptr, ptr %text.addr, align 8
  %7 = load i32, ptr %start.addr, align 4
  %8 = load i32, ptr %nameTypes, align 4
  %9 = load ptr, ptr %status.addr, align 8
  %vtable = load ptr, ptr %5, align 8
  %vfn = getelementptr inbounds ptr, ptr %vtable, i64 15
  %10 = load ptr, ptr %vfn, align 8
  %call = call noundef ptr %10(ptr noundef nonnull align 8 dereferenceable(8) %5, ptr noundef nonnull align 8 dereferenceable(64) %6, i32 noundef %7, i32 noundef %8, ptr noundef nonnull align 4 dereferenceable(4) %9)
  store ptr %call, ptr %retval, align 8
  br label %return

if.end9:                                          ; preds = %if.end6
  store ptr null, ptr %retval, align 8
  br label %return

return:                                           ; preds = %if.end9, %if.then8
  %11 = load ptr, ptr %retval, align 8
  ret ptr %11
}