; Function Attrs: mustprogress uwtable
define noundef ptr @_ZNK6icu_758TZGNCore17findTimeZoneNamesERKNS_13UnicodeStringEijR10UErrorCode(ptr nocapture noundef nonnull readonly align 8 dereferenceable(485) %this, ptr noundef nonnull align 8 dereferenceable(64) %text, i32 noundef %start, i32 noundef %types, ptr noundef nonnull align 4 dereferenceable(4) %status) local_unnamed_addr #1 align 2 {
entry:
  %tobool7.not = icmp eq i32 %types, 0
  br i1 %tobool7.not, label %return, label %if.then8

if.then8:                                         ; preds = %entry
  %and2 = and i32 %types, 4
  %tobool3.not = icmp eq i32 %and2, 0
  %and = and i32 %types, 2
  %tobool.not = icmp eq i32 %and, 0
  %spec.select = select i1 %tobool.not, i32 0, i32 3
  %or5 = or disjoint i32 %spec.select, 24
  %nameTypes.1 = select i1 %tobool3.not, i32 %spec.select, i32 %or5
  %fTimeZoneNames = getelementptr inbounds i8, ptr %this, i64 232
  %0 = load ptr, ptr %fTimeZoneNames, align 8
  %vtable = load ptr, ptr %0, align 8
  %vfn = getelementptr inbounds i8, ptr %vtable, i64 120
  %1 = load ptr, ptr %vfn, align 8
  %call = tail call noundef ptr %1(ptr noundef nonnull align 8 dereferenceable(8) %0, ptr noundef nonnull align 8 dereferenceable(64) %text, i32 noundef %start, i32 noundef %nameTypes.1, ptr noundef nonnull align 4 dereferenceable(4) %status)
  br label %return

return:                                           ; preds = %entry, %if.then8
  %retval.0 = phi ptr [ %call, %if.then8 ], [ null, %entry ]
  ret ptr %retval.0
}